; Function Attrs: inlinehint nofree norecurse nosync nounwind memory(argmem: readwrite) uwtable
define dso_local void @php_random_mt19937_seed32(ptr noundef captures(none) initializes((8, 12)) %0, i32 noundef %1) local_unnamed_addr #0 {
  %3 = getelementptr inbounds nuw i8, ptr %0, i64 8
  store i32 %1, ptr %3, align 4, !tbaa !4
  br label %4

4:                                                ; preds = %2, %4
  %5 = phi i32 [ %1, %2 ], [ %10, %4 ]
  %indvars.iv = phi i64 [ 1, %2 ], [ %indvars.iv.next, %4 ]
  %6 = lshr i32 %5, 30
  %7 = xor i32 %6, %5
  %8 = mul i32 %7, 1812433253
  %9 = trunc nuw nsw i64 %indvars.iv to i32
  %10 = add i32 %8, %9
  %11 = getelementptr inbounds nuw [624 x i32], ptr %3, i64 0, i64 %indvars.iv
  store i32 %10, ptr %11, align 4, !tbaa !4
  %indvars.iv.next = add nuw nsw i64 %indvars.iv, 1
  %exitcond.not = icmp eq i64 %indvars.iv.next, 624
  br i1 %exitcond.not, label %12, label %4

12:                                               ; preds = %4
  store i32 624, ptr %0, align 4, !tbaa !8
  tail call fastcc void @mt19937_reload(ptr noundef nonnull %0)
  ret void
}